; Function Attrs: mustprogress nofree norecurse nosync nounwind memory(readwrite, inaccessiblemem: none) uwtable
define hidden void @_ZN14GenerateOopMap21update_ret_adr_at_TOSEii(ptr nocapture noundef nonnull readonly align 8 dereferenceable(176) %0, i32 noundef %1, i32 noundef %2) local_unnamed_addr #1 align 2 {
  %4 = getelementptr inbounds i8, ptr %0, i64 168
  %5 = load ptr, ptr %4, align 8
  %6 = load i32, ptr %5, align 4
  %7 = icmp sgt i32 %6, 0
  br i1 %7, label %.lr.ph, label %._crit_edge

.lr.ph:                                           ; preds = %3, %17
  %8 = phi i32 [ %18, %17 ], [ %6, %3 ]
  %9 = phi ptr [ %19, %17 ], [ %5, %3 ]
  %indvars.iv = phi i64 [ %indvars.iv.next, %17 ], [ 0, %3 ]
  %10 = getelementptr inbounds i8, ptr %9, i64 8
  %11 = load ptr, ptr %10, align 8
  %12 = getelementptr inbounds i32, ptr %11, i64 %indvars.iv
  %13 = load i32, ptr %12, align 4
  %14 = icmp sgt i32 %13, %1
  br i1 %14, label %15, label %17

15:                                               ; preds = %.lr.ph
  %16 = add nsw i32 %13, %2
  store i32 %16, ptr %12, align 4
  %.pre = load ptr, ptr %4, align 8
  %.pre11 = load i32, ptr %.pre, align 4
  br label %17

17:                                               ; preds = %.lr.ph, %15
  %18 = phi i32 [ %8, %.lr.ph ], [ %.pre11, %15 ]
  %19 = phi ptr [ %9, %.lr.ph ], [ %.pre, %15 ]
  %indvars.iv.next = add nuw nsw i64 %indvars.iv, 1
  %20 = sext i32 %18 to i64
  %21 = icmp slt i64 %indvars.iv.next, %20
  br i1 %21, label %.lr.ph, label %._crit_edge, !llvm.loop !58

._crit_edge:                                      ; preds = %17, %3
  ret void
}